target datalayout = "e-m:e-p270:32:32-p271:32:32-p272:64:64-i64:64-i128:128-f80:128-n8:16:32:64-S128"
target triple = "x86_64-pc-linux-gnu"

%struct._expr = type { i32, %union.anon.37, i32, i32, i32, i32 }
%union.anon.37 = type { %struct.anon.40 }
%struct.anon.40 = type { ptr, i32, ptr }
%struct.anon.53 = type { ptr, ptr, ptr }

@PyExc_ValueError = external global ptr, align 8
@.str.44 = private unnamed_addr constant [37 x i8] c"field 'left' is required for Compare\00", align 1

; Function Attrs: nounwind uwtable
define hidden ptr @_PyAST_Compare(ptr noundef %0, ptr noundef %1, ptr noundef %2, i32 noundef %3, i32 noundef %4, i32 noundef %5, i32 noundef %6, ptr noundef %7) #0 {
  %9 = alloca ptr, align 8
  %10 = alloca ptr, align 8
  %11 = alloca ptr, align 8
  %12 = alloca ptr, align 8
  %13 = alloca i32, align 4
  %14 = alloca i32, align 4
  %15 = alloca i32, align 4
  %16 = alloca i32, align 4
  %17 = alloca ptr, align 8
  %18 = alloca ptr, align 8
  %19 = alloca i32, align 4
  store ptr %0, ptr %10, align 8, !tbaa !34
  store ptr %1, ptr %11, align 8, !tbaa !26
  store ptr %2, ptr %12, align 8, !tbaa !26
  store i32 %3, ptr %13, align 4, !tbaa !38
  store i32 %4, ptr %14, align 4, !tbaa !38
  store i32 %5, ptr %15, align 4, !tbaa !38
  store i32 %6, ptr %16, align 4, !tbaa !38
  store ptr %7, ptr %17, align 8, !tbaa !24
  call void @llvm.lifetime.start.p0(i64 8, ptr %18) #8
  %20 = load ptr, ptr %10, align 8, !tbaa !34
  %21 = icmp ne ptr %20, null
  br i1 %21, label %24, label %22

22:                                               ; preds = %8
  %23 = load ptr, ptr @PyExc_ValueError, align 8, !tbaa !13
  call void @PyErr_SetString(ptr noundef %23, ptr noundef @.str.44)
  store ptr null, ptr %9, align 8
  store i32 1, ptr %19, align 4
  br label %58

24:                                               ; preds = %8
  %25 = load ptr, ptr %17, align 8, !tbaa !24
  %26 = call ptr @_PyArena_Malloc(ptr noundef %25, i64 noundef 48)
  store ptr %26, ptr %18, align 8, !tbaa !34
  %27 = load ptr, ptr %18, align 8, !tbaa !34
  %28 = icmp ne ptr %27, null
  br i1 %28, label %30, label %29

29:                                               ; preds = %24
  store ptr null, ptr %9, align 8
  store i32 1, ptr %19, align 4
  br label %58

30:                                               ; preds = %24
  %31 = load ptr, ptr %18, align 8, !tbaa !34
  %32 = getelementptr inbounds nuw %struct._expr, ptr %31, i32 0, i32 0
  store i32 16, ptr %32, align 8, !tbaa !47
  %33 = load ptr, ptr %10, align 8, !tbaa !34
  %34 = load ptr, ptr %18, align 8, !tbaa !34
  %35 = getelementptr inbounds nuw %struct._expr, ptr %34, i32 0, i32 1
  %36 = getelementptr inbounds nuw %struct.anon.53, ptr %35, i32 0, i32 0
  store ptr %33, ptr %36, align 8, !tbaa !21
  %37 = load ptr, ptr %11, align 8, !tbaa !26
  %38 = load ptr, ptr %18, align 8, !tbaa !34
  %39 = getelementptr inbounds nuw %struct._expr, ptr %38, i32 0, i32 1
  %40 = getelementptr inbounds nuw %struct.anon.53, ptr %39, i32 0, i32 1
  store ptr %37, ptr %40, align 8, !tbaa !21
  %41 = load ptr, ptr %12, align 8, !tbaa !26
  %42 = load ptr, ptr %18, align 8, !tbaa !34
  %43 = getelementptr inbounds nuw %struct._expr, ptr %42, i32 0, i32 1
  %44 = getelementptr inbounds nuw %struct.anon.53, ptr %43, i32 0, i32 2
  store ptr %41, ptr %44, align 8, !tbaa !21
  %45 = load i32, ptr %13, align 4, !tbaa !38
  %46 = load ptr, ptr %18, align 8, !tbaa !34
  %47 = getelementptr inbounds nuw %struct._expr, ptr %46, i32 0, i32 2
  store i32 %45, ptr %47, align 8, !tbaa !49
  %48 = load i32, ptr %14, align 4, !tbaa !38
  %49 = load ptr, ptr %18, align 8, !tbaa !34
  %50 = getelementptr inbounds nuw %struct._expr, ptr %49, i32 0, i32 3
  store i32 %48, ptr %50, align 4, !tbaa !50
  %51 = load i32, ptr %15, align 4, !tbaa !38
  %52 = load ptr, ptr %18, align 8, !tbaa !34
  %53 = getelementptr inbounds nuw %struct._expr, ptr %52, i32 0, i32 4
  store i32 %51, ptr %53, align 8, !tbaa !51
  %54 = load i32, ptr %16, align 4, !tbaa !38
  %55 = load ptr, ptr %18, align 8, !tbaa !34
  %56 = getelementptr inbounds nuw %struct._expr, ptr %55, i32 0, i32 5
  store i32 %54, ptr %56, align 4, !tbaa !52
  %57 = load ptr, ptr %18, align 8, !tbaa !34
  store ptr %57, ptr %9, align 8
  store i32 1, ptr %19, align 4
  br label %58

58:                                               ; preds = %30, %29, %22
  call void @llvm.lifetime.end.p0(i64 8, ptr %18) #8
  %59 = load ptr, ptr %9, align 8
  ret ptr %59
}